target datalayout = "e-m:e-p270:32:32-p271:32:32-p272:64:64-i64:64-i128:128-f80:128-n8:16:32:64-S128"
target triple = "x86_64-pc-linux-gnu"

@_ZN3tbb6detail2r1L8controlsE = internal global [4 x ptr] zeroinitializer, align 16

; Function Attrs: mustprogress sspstrong uwtable
define void @_ZN3tbb6detail2r122global_control_releaseEv() #0 {
  %1 = alloca ptr, align 8
  %2 = alloca ptr, align 8
  %3 = alloca ptr, align 8
  %4 = alloca ptr, align 8
  call void @llvm.lifetime.start.p0(i64 8, ptr %1) #10
  store ptr @_ZN3tbb6detail2r1L8controlsE, ptr %1, align 8, !tbaa !18
  call void @llvm.lifetime.start.p0(i64 8, ptr %2) #10
  store ptr @_ZN3tbb6detail2r1L8controlsE, ptr %2, align 8, !tbaa !18
  call void @llvm.lifetime.start.p0(i64 8, ptr %3) #10
  store ptr getelementptr inbounds (ptr, ptr @_ZN3tbb6detail2r1L8controlsE, i64 4), ptr %3, align 8, !tbaa !18
  br label %5

5:                                                ; preds = %20, %0
  %6 = load ptr, ptr %2, align 8, !tbaa !18
  %7 = load ptr, ptr %3, align 8, !tbaa !18
  %8 = icmp ne ptr %6, %7
  br i1 %8, label %10, label %9

9:                                                ; preds = %5
  call void @llvm.lifetime.end.p0(i64 8, ptr %3) #10
  call void @llvm.lifetime.end.p0(i64 8, ptr %2) #10
  call void @llvm.lifetime.end.p0(i64 8, ptr %1) #10
  br label %23

10:                                               ; preds = %5
  call void @llvm.lifetime.start.p0(i64 8, ptr %4) #10
  %11 = load ptr, ptr %2, align 8, !tbaa !18
  store ptr %11, ptr %4, align 8, !tbaa !18
  %12 = load ptr, ptr %4, align 8, !tbaa !18
  %13 = load ptr, ptr %12, align 8, !tbaa !3
  %14 = load ptr, ptr %13, align 8, !tbaa !10
  %15 = getelementptr inbounds ptr, ptr %14, i64 0
  %16 = load ptr, ptr %15, align 8
  call void %16(ptr noundef nonnull align 8 dereferenceable(65) %13) #10
  %17 = load ptr, ptr %4, align 8, !tbaa !18
  %18 = load ptr, ptr %17, align 8, !tbaa !3
  call void @_ZN3tbb6detail2r124cache_aligned_deallocateEPv(ptr noundef %18)
  %19 = load ptr, ptr %4, align 8, !tbaa !18
  store ptr null, ptr %19, align 8, !tbaa !3
  call void @llvm.lifetime.end.p0(i64 8, ptr %4) #10
  br label %20

20:                                               ; preds = %10
  %21 = load ptr, ptr %2, align 8, !tbaa !18
  %22 = getelementptr inbounds nuw ptr, ptr %21, i32 1
  store ptr %22, ptr %2, align 8, !tbaa !18
  br label %5

23:                                               ; preds = %9
  ret void
}