; Function Attrs: mustprogress sspstrong uwtable
define void @_ZN3tbb6detail2r122global_control_releaseEv() local_unnamed_addr #0 {
  br label %2

1:                                                ; preds = %2
  ret void

2:                                                ; preds = %0, %2
  %.0.idx7 = phi i64 [ 0, %0 ], [ %.0.add, %2 ]
  %.0.ptr = getelementptr inbounds nuw i8, ptr @_ZN3tbb6detail2r1L8controlsE, i64 %.0.idx7
  %3 = load ptr, ptr %.0.ptr, align 8, !tbaa !18
  %4 = load ptr, ptr %3, align 8, !tbaa !16
  %5 = load ptr, ptr %4, align 8
  tail call void %5(ptr noundef nonnull align 8 dereferenceable(65) %3) #12
  %6 = load ptr, ptr %.0.ptr, align 8, !tbaa !18
  tail call void @_ZN3tbb6detail2r124cache_aligned_deallocateEPv(ptr noundef %6)
  store ptr null, ptr %.0.ptr, align 8, !tbaa !18
  %.0.add = add nuw nsw i64 %.0.idx7, 8
  %.not = icmp eq i64 %.0.add, 32
  br i1 %.not, label %1, label %2
}